; Function Attrs: mustprogress uwtable
define hidden void @_ZN2cv4face4LBPH6updateERKNS_11_InputArrayES4_(ptr noundef nonnull align 8 dereferenceable(200) %0, ptr noundef nonnull align 8 dereferenceable(24) %1, ptr noundef nonnull align 8 dereferenceable(24) %2) unnamed_addr #3 align 2 {
  %4 = tail call noundef i64 @_ZNK2cv11_InputArray5totalEi(ptr noundef nonnull align 8 dereferenceable(24) %1, i32 noundef -1)
  %5 = icmp eq i64 %4, 0
  br i1 %5, label %7, label %6

6:                                                ; preds = %3
  tail call void @_ZN2cv4face4LBPH5trainERKNS_11_InputArrayES4_b(ptr noundef nonnull align 8 dereferenceable(200) %0, ptr noundef nonnull align 8 dereferenceable(24) %1, ptr noundef nonnull align 8 dereferenceable(24) %2, i1 noundef zeroext true)
  br label %7

7:                                                ; preds = %3, %6
  ret void
}